; Function Attrs: mustprogress uwtable
define hidden void @_ZNK6google8protobuf10Reflection7AddEnumEPNS0_7MessageEPKNS0_15FieldDescriptorEPKNS0_19EnumValueDescriptorE(ptr noundef nonnull align 8 dereferenceable(96) %0, ptr noundef %1, ptr noundef nonnull %2, ptr noundef readonly captures(none) %3) local_unnamed_addr #3 align 2 {
  %5 = getelementptr inbounds nuw i8, ptr %3, i64 16
  %6 = load ptr, ptr %5, align 8, !tbaa !221
  %7 = tail call noundef ptr @_ZNK6google8protobuf15FieldDescriptor9enum_typeEv(ptr noundef nonnull align 8 dereferenceable(72) %2)
  %.not = icmp eq ptr %6, %7
  br i1 %.not, label %10, label %8

8:                                                ; preds = %4
  %9 = load ptr, ptr %0, align 8, !tbaa !18
  tail call fastcc void @_ZN6google8protobuf12_GLOBAL__N_134ReportReflectionUsageEnumTypeErrorEPKNS0_10DescriptorEPKNS0_15FieldDescriptorEPKcPKNS0_19EnumValueDescriptorE(ptr noundef %9, ptr noundef nonnull %2, ptr noundef nonnull @.str.68, ptr noundef nonnull %3)
  br label %10

10:                                               ; preds = %8, %4
  %11 = getelementptr inbounds nuw i8, ptr %3, i64 4
  %12 = load i32, ptr %11, align 4, !tbaa !3
  tail call void @_ZNK6google8protobuf10Reflection20AddEnumValueInternalEPNS0_7MessageEPKNS0_15FieldDescriptorEi(ptr noundef nonnull align 8 dereferenceable(96) %0, ptr noundef %1, ptr noundef nonnull %2, i32 noundef %12)
  ret void
}